target datalayout = "e-m:e-p270:32:32-p271:32:32-p272:64:64-i64:64-i128:128-f80:128-n8:16:32:64-S128"
target triple = "x86_64-pc-linux-gnu"

%struct.pysqlite_state = type { ptr, ptr, ptr, ptr, ptr, ptr, ptr, ptr, ptr, ptr, ptr, ptr, ptr, i32, i32, ptr, ptr, ptr, ptr, ptr, ptr, ptr, ptr, ptr, ptr, ptr, ptr, ptr, ptr }

@.str.106 = private unnamed_addr constant [6 x i8] c"adapt\00", align 1

; Function Attrs: nounwind uwtable
define internal ptr @pysqlite_adapt_impl(ptr noundef %0, ptr noundef %1, ptr noundef %2, ptr noundef %3) #0 {
  %5 = alloca ptr, align 8
  %6 = alloca ptr, align 8
  %7 = alloca ptr, align 8
  %8 = alloca ptr, align 8
  %9 = alloca ptr, align 8
  store ptr %0, ptr %5, align 8, !tbaa !15
  store ptr %1, ptr %6, align 8, !tbaa !15
  store ptr %2, ptr %7, align 8, !tbaa !15
  store ptr %3, ptr %8, align 8, !tbaa !15
  call void @llvm.lifetime.start.p0(i64 8, ptr %9) #6
  %10 = load ptr, ptr %5, align 8, !tbaa !15
  %11 = call ptr @pysqlite_get_state(ptr noundef %10)
  store ptr %11, ptr %9, align 8, !tbaa !17
  %12 = load ptr, ptr %9, align 8, !tbaa !17
  %13 = load ptr, ptr %6, align 8, !tbaa !15
  %14 = load ptr, ptr %7, align 8, !tbaa !15
  %15 = load ptr, ptr %8, align 8, !tbaa !15
  %16 = call ptr @pysqlite_microprotocols_adapt(ptr noundef %12, ptr noundef %13, ptr noundef %14, ptr noundef %15)
  call void @llvm.lifetime.end.p0(i64 8, ptr %9) #6
  ret ptr %16
}

; Function Attrs: inlinehint nounwind uwtable
define internal ptr @pysqlite_get_state(ptr noundef %0) #3 {
  %2 = alloca ptr, align 8
  %3 = alloca ptr, align 8
  store ptr %0, ptr %2, align 8, !tbaa !15
  call void @llvm.lifetime.start.p0(i64 8, ptr %3) #6
  %4 = load ptr, ptr %2, align 8, !tbaa !15
  %5 = call ptr @PyModule_GetState(ptr noundef %4)
  store ptr %5, ptr %3, align 8, !tbaa !17
  %6 = load ptr, ptr %3, align 8, !tbaa !17
  call void @llvm.lifetime.end.p0(i64 8, ptr %3) #6
  ret ptr %6
}

; Function Attrs: nounwind uwtable
define internal ptr @pysqlite_adapt(ptr noundef %0, ptr noundef %1, i64 noundef %2) #0 {
  %4 = alloca ptr, align 8
  %5 = alloca ptr, align 8
  %6 = alloca i64, align 8
  %7 = alloca ptr, align 8
  %8 = alloca ptr, align 8
  %9 = alloca ptr, align 8
  %10 = alloca ptr, align 8
  store ptr %0, ptr %4, align 8, !tbaa !15
  store ptr %1, ptr %5, align 8, !tbaa !39
  store i64 %2, ptr %6, align 8, !tbaa !44
  call void @llvm.lifetime.start.p0(i64 8, ptr %7) #6
  store ptr null, ptr %7, align 8, !tbaa !15
  call void @llvm.lifetime.start.p0(i64 8, ptr %8) #6
  call void @llvm.lifetime.start.p0(i64 8, ptr %9) #6
  %11 = load ptr, ptr %4, align 8, !tbaa !15
  %12 = call ptr @pysqlite_get_state(ptr noundef %11)
  %13 = getelementptr inbounds nuw %struct.pysqlite_state, ptr %12, i32 0, i32 18
  %14 = load ptr, ptr %13, align 8, !tbaa !33
  store ptr %14, ptr %9, align 8, !tbaa !15
  call void @llvm.lifetime.start.p0(i64 8, ptr %10) #6
  store ptr null, ptr %10, align 8, !tbaa !15
  %15 = load i64, ptr %6, align 8, !tbaa !44
  %16 = icmp sle i64 1, %15
  br i1 %16, label %17, label %20

17:                                               ; preds = %3
  %18 = load i64, ptr %6, align 8, !tbaa !44
  %19 = icmp sle i64 %18, 3
  br i1 %19, label %25, label %20

20:                                               ; preds = %17, %3
  %21 = load i64, ptr %6, align 8, !tbaa !44
  %22 = call i32 @_PyArg_CheckPositional(ptr noundef @.str.106, i64 noundef %21, i64 noundef 1, i64 noundef 3)
  %23 = icmp ne i32 %22, 0
  br i1 %23, label %25, label %24

24:                                               ; preds = %20
  br label %49

25:                                               ; preds = %20, %17
  %26 = load ptr, ptr %5, align 8, !tbaa !39
  %27 = getelementptr ptr, ptr %26, i64 0
  %28 = load ptr, ptr %27, align 8, !tbaa !15
  store ptr %28, ptr %8, align 8, !tbaa !15
  %29 = load i64, ptr %6, align 8, !tbaa !44
  %30 = icmp slt i64 %29, 2
  br i1 %30, label %31, label %32

31:                                               ; preds = %25
  br label %43

32:                                               ; preds = %25
  %33 = load ptr, ptr %5, align 8, !tbaa !39
  %34 = getelementptr ptr, ptr %33, i64 1
  %35 = load ptr, ptr %34, align 8, !tbaa !15
  store ptr %35, ptr %9, align 8, !tbaa !15
  %36 = load i64, ptr %6, align 8, !tbaa !44
  %37 = icmp slt i64 %36, 3
  br i1 %37, label %38, label %39

38:                                               ; preds = %32
  br label %43

39:                                               ; preds = %32
  %40 = load ptr, ptr %5, align 8, !tbaa !39
  %41 = getelementptr ptr, ptr %40, i64 2
  %42 = load ptr, ptr %41, align 8, !tbaa !15
  store ptr %42, ptr %10, align 8, !tbaa !15
  br label %43

43:                                               ; preds = %39, %38, %31
  %44 = load ptr, ptr %4, align 8, !tbaa !15
  %45 = load ptr, ptr %8, align 8, !tbaa !15
  %46 = load ptr, ptr %9, align 8, !tbaa !15
  %47 = load ptr, ptr %10, align 8, !tbaa !15
  %48 = call ptr @pysqlite_adapt_impl(ptr noundef %44, ptr noundef %45, ptr noundef %46, ptr noundef %47)
  store ptr %48, ptr %7, align 8, !tbaa !15
  br label %49

49:                                               ; preds = %43, %24
  %50 = load ptr, ptr %7, align 8, !tbaa !15
  call void @llvm.lifetime.end.p0(i64 8, ptr %10) #6
  call void @llvm.lifetime.end.p0(i64 8, ptr %9) #6
  call void @llvm.lifetime.end.p0(i64 8, ptr %8) #6
  call void @llvm.lifetime.end.p0(i64 8, ptr %7) #6
  ret ptr %50
}