; Function Attrs: nounwind uwtable
define internal ptr @pysqlite_adapt(ptr noundef %0, ptr noundef readonly captures(none) %1, i64 noundef %2) #2 {
  %4 = tail call ptr @PyModule_GetState(ptr noundef %0) #5
  %5 = getelementptr inbounds nuw i8, ptr %4, i64 136
  %6 = load ptr, ptr %5, align 8, !tbaa !30
  %7 = add i64 %2, -1
  %or.cond = icmp ult i64 %7, 3
  br i1 %or.cond, label %10, label %8

8:                                                ; preds = %3
  %9 = tail call i32 @_PyArg_CheckPositional(ptr noundef nonnull @.str.106, i64 noundef %2, i64 noundef 1, i64 noundef 3) #5
  %.not = icmp eq i32 %9, 0
  br i1 %.not, label %23, label %10

10:                                               ; preds = %3, %8
  %11 = load ptr, ptr %1, align 8, !tbaa !36
  %12 = icmp slt i64 %2, 2
  br i1 %12, label %20, label %13

13:                                               ; preds = %10
  %14 = getelementptr i8, ptr %1, i64 8
  %15 = load ptr, ptr %14, align 8, !tbaa !36
  %16 = icmp eq i64 %2, 2
  br i1 %16, label %20, label %17

17:                                               ; preds = %13
  %18 = getelementptr i8, ptr %1, i64 16
  %19 = load ptr, ptr %18, align 8, !tbaa !36
  br label %20

20:                                               ; preds = %13, %10, %17
  %.014 = phi ptr [ %6, %10 ], [ %15, %13 ], [ %15, %17 ]
  %.0 = phi ptr [ null, %10 ], [ null, %13 ], [ %19, %17 ]
  %21 = tail call ptr @PyModule_GetState(ptr noundef %0) #5
  %22 = tail call ptr @pysqlite_microprotocols_adapt(ptr noundef %21, ptr noundef %11, ptr noundef %.014, ptr noundef %.0) #5
  br label %23

23:                                               ; preds = %8, %20
  %.015 = phi ptr [ %22, %20 ], [ null, %8 ]
  ret ptr %.015
}